target datalayout = "e-m:e-p270:32:32-p271:32:32-p272:64:64-i64:64-i128:128-f80:128-n8:16:32:64-S128"
target triple = "x86_64-pc-linux-gnu"

%struct.AVCodecContext = type { ptr, i32, i32, ptr, i32, i32, ptr, ptr, ptr, i64, i32, i32, ptr, i32, %struct.AVRational, %struct.AVRational, %struct.AVRational, i32, i32, i32, i32, i32, %struct.AVRational, i32, i32, i32, i32, i32, i32, i32, i32, i32, i32, i32, ptr, ptr, i32, float, float, float, float, float, float, float, float, float, i32, i32, i32, i32, i32, i32, i32, i32, i32, i32, i32, i32, ptr, ptr, ptr, i32, i32, i32, i32, i32, i32, i32, i32, i32, i32, %struct.AVChannelLayout, i32, i32, i32, i32, i32, i32, i32, i32, ptr, i32, i32, i32, float, float, i32, i32, i32, i32, i32, ptr, i64, i64, float, float, i32, i32, ptr, ptr, i32, i32, i32, i32, i32, ptr, ptr, ptr, ptr, i32, i32, [8 x i64], i32, i32, i32, i32, i32, i32, i32, ptr, ptr, i32, i32, i32, i32, i32, i32, i32, i32, i32, i32, ptr, ptr, i32, i32, ptr, ptr, ptr, ptr, i32, i32, i64, i32, i32, i64, ptr, i64, ptr, i32, ptr, i32 }
%struct.AVRational = type { i32, i32 }
%struct.AVChannelLayout = type { i32, i32, %union.anon, ptr }
%union.anon = type { i64 }
%struct.VP9SharedContext = type { %struct.VP9BitstreamHeader, [8 x %struct.ProgressFrame], [4 x %struct.VP9Frame] }
%struct.VP9BitstreamHeader = type { i8, i8, i8, i8, i8, i8, i8, i8, i8, i32, i8, i8, i8, i8, i8, [3 x i8], [3 x i8], i8, [2 x i8], %struct.anon, %struct.anon.0, i8, i8, i8, i8, i8, %struct.anon.1, i32, i32, %struct.anon.3, i32, i32 }
%struct.anon = type { i8, i8 }
%struct.anon.0 = type { i8, i8, [2 x i8], [4 x i8] }
%struct.anon.1 = type { i8, i8, i8, i8, [7 x i8], [3 x i8], [8 x %struct.anon.2] }
%struct.anon.2 = type { i8, i8, i8, i8, i8, i16, i8, [2 x [2 x i16]], [4 x [2 x i8]] }
%struct.anon.3 = type { i32, i32, i32, i32 }
%struct.ProgressFrame = type { ptr, ptr }
%struct.VP9Frame = type { %struct.ProgressFrame, ptr, ptr, ptr, i32, ptr }
%struct._VASliceParameterBufferVP9 = type { i32, i32, i32, [8 x %struct._VASegmentParameterVP9], [4 x i32] }
%struct._VASegmentParameterVP9 = type { %union.anon.6, [4 x [2 x i8]], i16, i16, i16, i16, [4 x i32] }
%union.anon.6 = type { i16 }

; Function Attrs: nounwind uwtable
define internal i32 @vaapi_vp9_decode_slice(ptr noundef %0, ptr noundef %1, i32 noundef %2) #0 {
  %4 = alloca i32, align 4
  %5 = alloca ptr, align 8
  %6 = alloca ptr, align 8
  %7 = alloca i32, align 4
  %8 = alloca ptr, align 8
  %9 = alloca ptr, align 8
  %10 = alloca %struct._VASliceParameterBufferVP9, align 4
  %11 = alloca i32, align 4
  %12 = alloca i32, align 4
  %13 = alloca %struct._VASliceParameterBufferVP9, align 4
  %14 = alloca %struct._VASegmentParameterVP9, align 4
  %15 = alloca i32, align 4
  store ptr %0, ptr %5, align 8, !tbaa !4
  store ptr %1, ptr %6, align 8, !tbaa !11
  store i32 %2, ptr %7, align 4, !tbaa !13
  call void @llvm.lifetime.start.p0(i64 8, ptr %8) #6
  %16 = load ptr, ptr %5, align 8, !tbaa !4
  %17 = getelementptr inbounds nuw %struct.AVCodecContext, ptr %16, i32 0, i32 6
  %18 = load ptr, ptr %17, align 8, !tbaa !15
  store ptr %18, ptr %8, align 8, !tbaa !32
  call void @llvm.lifetime.start.p0(i64 8, ptr %9) #6
  %19 = load ptr, ptr %8, align 8, !tbaa !32
  %20 = getelementptr inbounds nuw %struct.VP9SharedContext, ptr %19, i32 0, i32 2
  %21 = getelementptr inbounds [4 x %struct.VP9Frame], ptr %20, i64 0, i64 0
  %22 = getelementptr inbounds nuw %struct.VP9Frame, ptr %21, i32 0, i32 5
  %23 = load ptr, ptr %22, align 8, !tbaa !34
  store ptr %23, ptr %9, align 8, !tbaa !40
  call void @llvm.lifetime.start.p0(i64 316, ptr %10) #6
  call void @llvm.lifetime.start.p0(i64 4, ptr %11) #6
  call void @llvm.lifetime.start.p0(i64 4, ptr %12) #6
  call void @llvm.memset.p0.i64(ptr align 4 %13, i8 0, i64 316, i1 false)
  %24 = getelementptr inbounds nuw %struct._VASliceParameterBufferVP9, ptr %13, i32 0, i32 0
  %25 = load i32, ptr %7, align 4, !tbaa !13
  store i32 %25, ptr %24, align 4, !tbaa !100
  call void @llvm.memcpy.p0.p0.i64(ptr align 4 %10, ptr align 4 %13, i64 316, i1 false), !tbaa.struct !102
  store i32 0, ptr %12, align 4, !tbaa !13
  br label %26

26:                                               ; preds = %149, %3
  %27 = load i32, ptr %12, align 4, !tbaa !13
  %28 = icmp slt i32 %27, 8
  br i1 %28, label %29, label %152

29:                                               ; preds = %26
  %30 = getelementptr inbounds nuw %struct._VASliceParameterBufferVP9, ptr %10, i32 0, i32 3
  %31 = load i32, ptr %12, align 4, !tbaa !13
  %32 = sext i32 %31 to i64
  %33 = getelementptr inbounds [8 x %struct._VASegmentParameterVP9], ptr %30, i64 0, i64 %32
  %34 = getelementptr inbounds nuw %struct._VASegmentParameterVP9, ptr %14, i32 0, i32 0
  store i8 0, ptr %34, align 4
  %35 = load ptr, ptr %8, align 8, !tbaa !32
  %36 = getelementptr inbounds nuw %struct.VP9SharedContext, ptr %35, i32 0, i32 0
  %37 = getelementptr inbounds nuw %struct.VP9BitstreamHeader, ptr %36, i32 0, i32 26
  %38 = getelementptr inbounds nuw %struct.anon.1, ptr %37, i32 0, i32 6
  %39 = load i32, ptr %12, align 4, !tbaa !13
  %40 = sext i32 %39 to i64
  %41 = getelementptr inbounds [8 x %struct.anon.2], ptr %38, i64 0, i64 %40
  %42 = getelementptr inbounds nuw %struct.anon.2, ptr %41, i32 0, i32 2
  %43 = load i8, ptr %42, align 2, !tbaa !103
  %44 = zext i8 %43 to i16
  %45 = trunc i16 %44 to i8
  %46 = load i8, ptr %34, align 4
  %47 = and i8 %45, 1
  %48 = and i8 %46, -2
  %49 = or i8 %48, %47
  store i8 %49, ptr %34, align 4
  %50 = load ptr, ptr %8, align 8, !tbaa !32
  %51 = getelementptr inbounds nuw %struct.VP9SharedContext, ptr %50, i32 0, i32 0
  %52 = getelementptr inbounds nuw %struct.VP9BitstreamHeader, ptr %51, i32 0, i32 26
  %53 = getelementptr inbounds nuw %struct.anon.1, ptr %52, i32 0, i32 6
  %54 = load i32, ptr %12, align 4, !tbaa !13
  %55 = sext i32 %54 to i64
  %56 = getelementptr inbounds [8 x %struct.anon.2], ptr %53, i64 0, i64 %55
  %57 = getelementptr inbounds nuw %struct.anon.2, ptr %56, i32 0, i32 4
  %58 = load i8, ptr %57, align 2, !tbaa !105
  %59 = zext i8 %58 to i16
  %60 = trunc i16 %59 to i8
  %61 = load i8, ptr %34, align 4
  %62 = and i8 %60, 3
  %63 = shl i8 %62, 1
  %64 = and i8 %61, -7
  %65 = or i8 %64, %63
  store i8 %65, ptr %34, align 4
  %66 = load ptr, ptr %8, align 8, !tbaa !32
  %67 = getelementptr inbounds nuw %struct.VP9SharedContext, ptr %66, i32 0, i32 0
  %68 = getelementptr inbounds nuw %struct.VP9BitstreamHeader, ptr %67, i32 0, i32 26
  %69 = getelementptr inbounds nuw %struct.anon.1, ptr %68, i32 0, i32 6
  %70 = load i32, ptr %12, align 4, !tbaa !13
  %71 = sext i32 %70 to i64
  %72 = getelementptr inbounds [8 x %struct.anon.2], ptr %69, i64 0, i64 %71
  %73 = getelementptr inbounds nuw %struct.anon.2, ptr %72, i32 0, i32 3
  %74 = load i8, ptr %73, align 1, !tbaa !106
  %75 = zext i8 %74 to i16
  %76 = trunc i16 %75 to i8
  %77 = load i8, ptr %34, align 4
  %78 = and i8 %76, 1
  %79 = shl i8 %78, 3
  %80 = and i8 %77, -9
  %81 = or i8 %80, %79
  store i8 %81, ptr %34, align 4
  %82 = getelementptr i8, ptr %34, i64 1
  call void @llvm.memset.p0.i64(ptr align 1 %82, i8 0, i64 1, i1 false)
  %83 = getelementptr inbounds nuw %struct._VASegmentParameterVP9, ptr %14, i32 0, i32 1
  call void @llvm.memset.p0.i64(ptr align 2 %83, i8 0, i64 8, i1 false)
  %84 = getelementptr inbounds nuw %struct._VASegmentParameterVP9, ptr %14, i32 0, i32 2
  %85 = load ptr, ptr %8, align 8, !tbaa !32
  %86 = getelementptr inbounds nuw %struct.VP9SharedContext, ptr %85, i32 0, i32 0
  %87 = getelementptr inbounds nuw %struct.VP9BitstreamHeader, ptr %86, i32 0, i32 26
  %88 = getelementptr inbounds nuw %struct.anon.1, ptr %87, i32 0, i32 6
  %89 = load i32, ptr %12, align 4, !tbaa !13
  %90 = sext i32 %89 to i64
  %91 = getelementptr inbounds [8 x %struct.anon.2], ptr %88, i64 0, i64 %90
  %92 = getelementptr inbounds nuw %struct.anon.2, ptr %91, i32 0, i32 7
  %93 = getelementptr inbounds [2 x [2 x i16]], ptr %92, i64 0, i64 0
  %94 = getelementptr inbounds [2 x i16], ptr %93, i64 0, i64 1
  %95 = load i16, ptr %94, align 2, !tbaa !94
  store i16 %95, ptr %84, align 2, !tbaa !107
  %96 = getelementptr inbounds nuw %struct._VASegmentParameterVP9, ptr %14, i32 0, i32 3
  %97 = load ptr, ptr %8, align 8, !tbaa !32
  %98 = getelementptr inbounds nuw %struct.VP9SharedContext, ptr %97, i32 0, i32 0
  %99 = getelementptr inbounds nuw %struct.VP9BitstreamHeader, ptr %98, i32 0, i32 26
  %100 = getelementptr inbounds nuw %struct.anon.1, ptr %99, i32 0, i32 6
  %101 = load i32, ptr %12, align 4, !tbaa !13
  %102 = sext i32 %101 to i64
  %103 = getelementptr inbounds [8 x %struct.anon.2], ptr %100, i64 0, i64 %102
  %104 = getelementptr inbounds nuw %struct.anon.2, ptr %103, i32 0, i32 7
  %105 = getelementptr inbounds [2 x [2 x i16]], ptr %104, i64 0, i64 0
  %106 = getelementptr inbounds [2 x i16], ptr %105, i64 0, i64 0
  %107 = load i16, ptr %106, align 2, !tbaa !94
  store i16 %107, ptr %96, align 4, !tbaa !109
  %108 = getelementptr inbounds nuw %struct._VASegmentParameterVP9, ptr %14, i32 0, i32 4
  %109 = load ptr, ptr %8, align 8, !tbaa !32
  %110 = getelementptr inbounds nuw %struct.VP9SharedContext, ptr %109, i32 0, i32 0
  %111 = getelementptr inbounds nuw %struct.VP9BitstreamHeader, ptr %110, i32 0, i32 26
  %112 = getelementptr inbounds nuw %struct.anon.1, ptr %111, i32 0, i32 6
  %113 = load i32, ptr %12, align 4, !tbaa !13
  %114 = sext i32 %113 to i64
  %115 = getelementptr inbounds [8 x %struct.anon.2], ptr %112, i64 0, i64 %114
  %116 = getelementptr inbounds nuw %struct.anon.2, ptr %115, i32 0, i32 7
  %117 = getelementptr inbounds [2 x [2 x i16]], ptr %116, i64 0, i64 1
  %118 = getelementptr inbounds [2 x i16], ptr %117, i64 0, i64 1
  %119 = load i16, ptr %118, align 2, !tbaa !94
  store i16 %119, ptr %108, align 2, !tbaa !110
  %120 = getelementptr inbounds nuw %struct._VASegmentParameterVP9, ptr %14, i32 0, i32 5
  %121 = load ptr, ptr %8, align 8, !tbaa !32
  %122 = getelementptr inbounds nuw %struct.VP9SharedContext, ptr %121, i32 0, i32 0
  %123 = getelementptr inbounds nuw %struct.VP9BitstreamHeader, ptr %122, i32 0, i32 26
  %124 = getelementptr inbounds nuw %struct.anon.1, ptr %123, i32 0, i32 6
  %125 = load i32, ptr %12, align 4, !tbaa !13
  %126 = sext i32 %125 to i64
  %127 = getelementptr inbounds [8 x %struct.anon.2], ptr %124, i64 0, i64 %126
  %128 = getelementptr inbounds nuw %struct.anon.2, ptr %127, i32 0, i32 7
  %129 = getelementptr inbounds [2 x [2 x i16]], ptr %128, i64 0, i64 1
  %130 = getelementptr inbounds [2 x i16], ptr %129, i64 0, i64 0
  %131 = load i16, ptr %130, align 2, !tbaa !94
  store i16 %131, ptr %120, align 4, !tbaa !111
  %132 = getelementptr i8, ptr %14, i64 18
  call void @llvm.memset.p0.i64(ptr align 2 %132, i8 0, i64 2, i1 false)
  %133 = getelementptr inbounds nuw %struct._VASegmentParameterVP9, ptr %14, i32 0, i32 6
  call void @llvm.memset.p0.i64(ptr align 4 %133, i8 0, i64 16, i1 false)
  call void @llvm.memcpy.p0.p0.i64(ptr align 4 %33, ptr align 4 %14, i64 36, i1 false), !tbaa.struct !112
  %134 = getelementptr inbounds nuw %struct._VASliceParameterBufferVP9, ptr %10, i32 0, i32 3
  %135 = load i32, ptr %12, align 4, !tbaa !13
  %136 = sext i32 %135 to i64
  %137 = getelementptr inbounds [8 x %struct._VASegmentParameterVP9], ptr %134, i64 0, i64 %136
  %138 = getelementptr inbounds nuw %struct._VASegmentParameterVP9, ptr %137, i32 0, i32 1
  %139 = getelementptr inbounds [4 x [2 x i8]], ptr %138, i64 0, i64 0
  %140 = load ptr, ptr %8, align 8, !tbaa !32
  %141 = getelementptr inbounds nuw %struct.VP9SharedContext, ptr %140, i32 0, i32 0
  %142 = getelementptr inbounds nuw %struct.VP9BitstreamHeader, ptr %141, i32 0, i32 26
  %143 = getelementptr inbounds nuw %struct.anon.1, ptr %142, i32 0, i32 6
  %144 = load i32, ptr %12, align 4, !tbaa !13
  %145 = sext i32 %144 to i64
  %146 = getelementptr inbounds [8 x %struct.anon.2], ptr %143, i64 0, i64 %145
  %147 = getelementptr inbounds nuw %struct.anon.2, ptr %146, i32 0, i32 8
  %148 = getelementptr inbounds [4 x [2 x i8]], ptr %147, i64 0, i64 0
  call void @llvm.memcpy.p0.p0.i64(ptr align 2 %139, ptr align 2 %148, i64 8, i1 false)
  br label %149

149:                                              ; preds = %29
  %150 = load i32, ptr %12, align 4, !tbaa !13
  %151 = add nsw i32 %150, 1
  store i32 %151, ptr %12, align 4, !tbaa !13
  br label %26, !llvm.loop !113

152:                                              ; preds = %26
  %153 = load ptr, ptr %5, align 8, !tbaa !4
  %154 = load ptr, ptr %9, align 8, !tbaa !40
  %155 = load ptr, ptr %6, align 8, !tbaa !11
  %156 = load i32, ptr %7, align 4, !tbaa !13
  %157 = zext i32 %156 to i64
  %158 = call i32 @ff_vaapi_decode_make_slice_buffer(ptr noundef %153, ptr noundef %154, ptr noundef %10, i32 noundef 1, i64 noundef 316, ptr noundef %155, i64 noundef %157)
  store i32 %158, ptr %11, align 4, !tbaa !13
  %159 = load i32, ptr %11, align 4, !tbaa !13
  %160 = icmp ne i32 %159, 0
  br i1 %160, label %161, label %166

161:                                              ; preds = %152
  %162 = load ptr, ptr %5, align 8, !tbaa !4
  %163 = load ptr, ptr %9, align 8, !tbaa !40
  %164 = call i32 @ff_vaapi_decode_cancel(ptr noundef %162, ptr noundef %163)
  %165 = load i32, ptr %11, align 4, !tbaa !13
  store i32 %165, ptr %4, align 4
  store i32 1, ptr %15, align 4
  br label %167

166:                                              ; preds = %152
  store i32 0, ptr %4, align 4
  store i32 1, ptr %15, align 4
  br label %167

167:                                              ; preds = %166, %161
  call void @llvm.lifetime.end.p0(i64 4, ptr %12) #6
  call void @llvm.lifetime.end.p0(i64 4, ptr %11) #6
  call void @llvm.lifetime.end.p0(i64 316, ptr %10) #6
  call void @llvm.lifetime.end.p0(i64 8, ptr %9) #6
  call void @llvm.lifetime.end.p0(i64 8, ptr %8) #6
  %168 = load i32, ptr %4, align 4
  ret i32 %168
}