; Function Attrs: nounwind uwtable
define internal i32 @vaapi_vp9_decode_slice(ptr noundef %0, ptr noundef %1, i32 noundef %2) #0 {
  %4 = alloca %struct._VASliceParameterBufferVP9, align 4
  %5 = getelementptr inbounds nuw i8, ptr %0, i64 32
  %6 = load ptr, ptr %5, align 8, !tbaa !4
  %7 = getelementptr inbounds nuw i8, ptr %6, i64 480
  %8 = load ptr, ptr %7, align 8, !tbaa !27
  call void @llvm.lifetime.start.p0(i64 316, ptr nonnull %4) #4
  store i32 %2, ptr %4, align 4, !tbaa !78
  %.sroa.3.0..sroa_idx = getelementptr inbounds nuw i8, ptr %4, i64 4
  call void @llvm.memset.p0.i64(ptr noundef nonnull align 4 dereferenceable(312) %.sroa.3.0..sroa_idx, i8 0, i64 312, i1 false)
  %9 = getelementptr inbounds nuw i8, ptr %4, i64 12
  %10 = getelementptr inbounds nuw i8, ptr %6, i64 60
  br label %11

11:                                               ; preds = %3, %11
  %indvars.iv = phi i64 [ 0, %3 ], [ %indvars.iv.next, %11 ]
  %12 = getelementptr inbounds nuw [8 x %struct._VASegmentParameterVP9], ptr %9, i64 0, i64 %indvars.iv
  %13 = getelementptr inbounds nuw [8 x %struct.anon.2], ptr %10, i64 0, i64 %indvars.iv
  %14 = getelementptr inbounds nuw i8, ptr %13, i64 2
  %15 = load i8, ptr %14, align 2, !tbaa !80
  %16 = and i8 %15, 1
  %17 = getelementptr inbounds nuw i8, ptr %13, i64 4
  %18 = load i8, ptr %17, align 2, !tbaa !82
  %19 = shl i8 %18, 1
  %20 = and i8 %19, 6
  %21 = or disjoint i8 %20, %16
  %22 = getelementptr inbounds nuw i8, ptr %13, i64 3
  %23 = load i8, ptr %22, align 1, !tbaa !83
  %24 = shl i8 %23, 3
  %25 = and i8 %24, 8
  %26 = or disjoint i8 %21, %25
  %27 = getelementptr inbounds nuw i8, ptr %13, i64 10
  %28 = getelementptr inbounds nuw i8, ptr %13, i64 12
  %29 = load i16, ptr %28, align 2, !tbaa !72
  %30 = load i16, ptr %27, align 2, !tbaa !72
  %31 = getelementptr inbounds nuw i8, ptr %13, i64 14
  %32 = getelementptr inbounds nuw i8, ptr %13, i64 16
  %33 = load i16, ptr %32, align 2, !tbaa !72
  %34 = load i16, ptr %31, align 2, !tbaa !72
  store i8 %26, ptr %12, align 4
  %.sroa.8.0..sroa_idx = getelementptr inbounds nuw i8, ptr %12, i64 1
  store i8 0, ptr %.sroa.8.0..sroa_idx, align 1, !tbaa !62
  %.sroa.9.0..sroa_idx = getelementptr inbounds nuw i8, ptr %12, i64 2
  %.sroa.10.0..sroa_idx = getelementptr inbounds nuw i8, ptr %12, i64 10
  store i16 %29, ptr %.sroa.10.0..sroa_idx, align 2, !tbaa !72
  %.sroa.11.0..sroa_idx = getelementptr inbounds nuw i8, ptr %12, i64 12
  store i16 %30, ptr %.sroa.11.0..sroa_idx, align 4, !tbaa !72
  %.sroa.12.0..sroa_idx = getelementptr inbounds nuw i8, ptr %12, i64 14
  store i16 %33, ptr %.sroa.12.0..sroa_idx, align 2, !tbaa !72
  %.sroa.13.0..sroa_idx = getelementptr inbounds nuw i8, ptr %12, i64 16
  store i16 %34, ptr %.sroa.13.0..sroa_idx, align 4, !tbaa !72
  %.sroa.14.0..sroa_idx = getelementptr inbounds nuw i8, ptr %12, i64 18
  %35 = getelementptr inbounds nuw i8, ptr %13, i64 18
  call void @llvm.memset.p0.i64(ptr noundef nonnull align 2 dereferenceable(18) %.sroa.14.0..sroa_idx, i8 0, i64 18, i1 false)
  %36 = load i64, ptr %35, align 2
  store i64 %36, ptr %.sroa.9.0..sroa_idx, align 2
  %indvars.iv.next = add nuw nsw i64 %indvars.iv, 1
  %exitcond.not = icmp eq i64 %indvars.iv.next, 8
  br i1 %exitcond.not, label %37, label %11, !llvm.loop !84

37:                                               ; preds = %11
  %38 = zext i32 %2 to i64
  %39 = call i32 @ff_vaapi_decode_make_slice_buffer(ptr noundef nonnull %0, ptr noundef %8, ptr noundef nonnull %4, i32 noundef 1, i64 noundef 316, ptr noundef %1, i64 noundef %38) #4
  %.not = icmp eq i32 %39, 0
  br i1 %.not, label %42, label %40

40:                                               ; preds = %37
  %41 = call i32 @ff_vaapi_decode_cancel(ptr noundef nonnull %0, ptr noundef %8) #4
  br label %42

42:                                               ; preds = %37, %40
  call void @llvm.lifetime.end.p0(i64 316, ptr nonnull %4) #4
  ret i32 %39
}